target datalayout = "e-m:e-p270:32:32-p271:32:32-p272:64:64-i64:64-i128:128-f80:128-n8:16:32:64-S128"
target triple = "x86_64-pc-linux-gnu"

%struct.ScanKeyData = type { i32, i16, i16, i32, i32, %struct.FmgrInfo, i64 }
%struct.FmgrInfo = type { ptr, i32, i16, i8, i8, i8, ptr, ptr, ptr }
%struct.FormData_pg_inherits = type { i32, i32, i32, i8 }
%struct.HeapTupleData = type { i32, %struct.ItemPointerData, i32, ptr }
%struct.ItemPointerData = type { %struct.BlockIdData, i16 }
%struct.BlockIdData = type { i16, i16 }
%struct.HeapTupleHeaderData = type { %union.anon, %struct.ItemPointerData, i16, i16, i8, [0 x i8] }
%union.anon = type { %struct.HeapTupleFields }
%struct.HeapTupleFields = type { i32, i32, %union.anon.0 }
%union.anon.0 = type { i32 }

@.str.1 = private unnamed_addr constant [14 x i8] c"pg_inherits.c\00", align 1
@.str.10 = private unnamed_addr constant [31 x i8] c"relation %u is not a partition\00", align 1
@__func__.PartitionHasPendingDetach = private unnamed_addr constant [26 x i8] c"PartitionHasPendingDetach\00", align 1

; Function Attrs: inlinehint nounwind uwtable
define internal ptr @GETSTRUCT(ptr noundef %0) #3 {
  %2 = alloca ptr, align 8
  store ptr %0, ptr %2, align 8
  %3 = load ptr, ptr %2, align 8
  %4 = getelementptr inbounds nuw %struct.HeapTupleData, ptr %3, i32 0, i32 3
  %5 = load ptr, ptr %4, align 8
  %6 = load ptr, ptr %2, align 8
  %7 = getelementptr inbounds nuw %struct.HeapTupleData, ptr %6, i32 0, i32 3
  %8 = load ptr, ptr %7, align 8
  %9 = getelementptr inbounds nuw %struct.HeapTupleHeaderData, ptr %8, i32 0, i32 4
  %10 = load i8, ptr %9, align 2
  %11 = zext i8 %10 to i32
  %12 = sext i32 %11 to i64
  %13 = getelementptr inbounds i8, ptr %5, i64 %12
  ret ptr %13
}

; Function Attrs: inlinehint nounwind uwtable
define internal i64 @ObjectIdGetDatum(i32 noundef %0) #3 {
  %2 = alloca i32, align 4
  store i32 %0, ptr %2, align 4
  %3 = load i32, ptr %2, align 4
  %4 = zext i32 %3 to i64
  ret i64 %4
}

; Function Attrs: nounwind uwtable
define dso_local zeroext i1 @PartitionHasPendingDetach(i32 noundef %0) #0 {
  %2 = alloca i1, align 1
  %3 = alloca i32, align 4
  %4 = alloca ptr, align 8
  %5 = alloca %struct.ScanKeyData, align 8
  %6 = alloca ptr, align 8
  %7 = alloca ptr, align 8
  %8 = alloca i8, align 1
  %9 = alloca i32, align 4
  store i32 %0, ptr %3, align 4
  call void @llvm.lifetime.start.p0(i64 8, ptr %4) #6
  call void @llvm.lifetime.start.p0(i64 72, ptr %5) #6
  call void @llvm.lifetime.start.p0(i64 8, ptr %6) #6
  call void @llvm.lifetime.start.p0(i64 8, ptr %7) #6
  %10 = call ptr @table_open(i32 noundef 2611, i32 noundef 3)
  store ptr %10, ptr %4, align 8
  %11 = load i32, ptr %3, align 4
  %12 = call i64 @ObjectIdGetDatum(i32 noundef %11)
  call void @ScanKeyInit(ptr noundef %5, i16 noundef signext 1, i16 noundef zeroext 3, i32 noundef 184, i64 noundef %12)
  %13 = load ptr, ptr %4, align 8
  %14 = call ptr @systable_beginscan(ptr noundef %13, i32 noundef 2680, i1 noundef zeroext true, ptr noundef null, i32 noundef 1, ptr noundef %5)
  store ptr %14, ptr %6, align 8
  br label %15

15:                                               ; preds = %1
  %16 = load ptr, ptr %6, align 8
  %17 = call ptr @systable_getnext(ptr noundef %16)
  store ptr %17, ptr %7, align 8
  %18 = icmp ne ptr %17, null
  br i1 %18, label %19, label %30

19:                                               ; preds = %15
  call void @llvm.lifetime.start.p0(i64 1, ptr %8) #6
  %20 = load ptr, ptr %7, align 8
  %21 = call ptr @GETSTRUCT(ptr noundef %20)
  %22 = getelementptr inbounds nuw %struct.FormData_pg_inherits, ptr %21, i32 0, i32 3
  %23 = load i8, ptr %22, align 4, !range !4, !noundef !5
  %24 = trunc i8 %23 to i1
  %25 = zext i1 %24 to i8
  store i8 %25, ptr %8, align 1
  %26 = load ptr, ptr %6, align 8
  call void @systable_endscan(ptr noundef %26)
  %27 = load ptr, ptr %4, align 8
  call void @table_close(ptr noundef %27, i32 noundef 3)
  %28 = load i8, ptr %8, align 1, !range !4, !noundef !5
  %29 = trunc i8 %28 to i1
  store i1 %29, ptr %2, align 1
  store i32 1, ptr %9, align 4
  call void @llvm.lifetime.end.p0(i64 1, ptr %8) #6
  br label %42

30:                                               ; preds = %15
  br label %31

31:                                               ; preds = %30
  br i1 true, label %32, label %34

32:                                               ; preds = %31
  %33 = call zeroext i1 @errstart_cold(i32 noundef 21, ptr noundef null) #7
  br i1 %33, label %36, label %39

34:                                               ; preds = %31
  %35 = call zeroext i1 @errstart(i32 noundef 21, ptr noundef null)
  br i1 %35, label %36, label %39

36:                                               ; preds = %34, %32
  %37 = load i32, ptr %3, align 4
  %38 = call i32 (ptr, ...) @errmsg_internal(ptr noundef @.str.10, i32 noundef %37)
  call void @errfinish(ptr noundef @.str.1, i32 noundef 654, ptr noundef @__func__.PartitionHasPendingDetach)
  br label %39

39:                                               ; preds = %36, %34, %32
  unreachable

40:                                               ; No predecessors!
  br label %41

41:                                               ; preds = %40
  store i1 false, ptr %2, align 1
  store i32 1, ptr %9, align 4
  br label %42

42:                                               ; preds = %41, %19
  call void @llvm.lifetime.end.p0(i64 8, ptr %7) #6
  call void @llvm.lifetime.end.p0(i64 8, ptr %6) #6
  call void @llvm.lifetime.end.p0(i64 72, ptr %5) #6
  call void @llvm.lifetime.end.p0(i64 8, ptr %4) #6
  %43 = load i1, ptr %2, align 1
  ret i1 %43
}