; Function Attrs: nounwind uwtable
define dso_local zeroext i1 @PartitionHasPendingDetach(i32 noundef %0) local_unnamed_addr #0 {
  %2 = alloca %struct.ScanKeyData, align 8
  call void @llvm.lifetime.start.p0(i64 72, ptr nonnull %2) #5
  %3 = tail call ptr @table_open(i32 noundef 2611, i32 noundef 3) #5
  %4 = zext i32 %0 to i64
  call void @ScanKeyInit(ptr noundef nonnull %2, i16 noundef signext 1, i16 noundef zeroext 3, i32 noundef 184, i64 noundef %4) #5
  %5 = call ptr @systable_beginscan(ptr noundef %3, i32 noundef 2680, i1 noundef zeroext true, ptr noundef null, i32 noundef 1, ptr noundef nonnull %2) #5
  %6 = call ptr @systable_getnext(ptr noundef %5) #5
  %.not = icmp eq ptr %6, null
  br i1 %.not, label %16, label %7

7:                                                ; preds = %1
  %8 = getelementptr i8, ptr %6, i64 16
  %.val = load ptr, ptr %8, align 8
  %9 = getelementptr inbounds nuw i8, ptr %.val, i64 22
  %10 = load i8, ptr %9, align 2
  %11 = zext i8 %10 to i64
  %12 = getelementptr inbounds nuw i8, ptr %.val, i64 %11
  %13 = getelementptr inbounds nuw i8, ptr %12, i64 12
  %14 = load i8, ptr %13, align 4, !range !4, !noundef !5
  %15 = trunc nuw i8 %14 to i1
  call void @systable_endscan(ptr noundef %5) #5
  call void @table_close(ptr noundef %3, i32 noundef 3) #5
  call void @llvm.lifetime.end.p0(i64 72, ptr nonnull %2) #5
  ret i1 %15

16:                                               ; preds = %1
  %17 = call zeroext i1 @errstart_cold(i32 noundef 21, ptr noundef null) #6
  call void @llvm.assume(i1 %17)
  %18 = call i32 (ptr, ...) @errmsg_internal(ptr noundef nonnull @.str.10, i32 noundef %0) #5
  call void @errfinish(ptr noundef nonnull @.str.1, i32 noundef 654, ptr noundef nonnull @__func__.PartitionHasPendingDetach) #5
  unreachable
}